; Function Attrs: nounwind uwtable
define void @Pla_ManComputeDist1Test(ptr noundef %0) local_unnamed_addr #0 {
  tail call void @Pla_ManConvertFromBits(ptr noundef %0) #19
  %2 = tail call ptr @Pla_ManComputeDistance1(ptr noundef %0)
  %3 = getelementptr inbounds nuw i8, ptr %2, i64 8
  %4 = load ptr, ptr %3, align 8, !tbaa !11
  %.not.i = icmp eq ptr %4, null
  br i1 %.not.i, label %Vec_IntFree.exit, label %5

5:                                                ; preds = %1
  tail call void @free(ptr noundef nonnull %4) #19
  br label %Vec_IntFree.exit

Vec_IntFree.exit:                                 ; preds = %1, %5
  tail call void @free(ptr noundef nonnull %2) #19
  ret void
}